target datalayout = "e-m:e-p270:32:32-p271:32:32-p272:64:64-i64:64-i128:128-f80:128-n8:16:32:64-S128"
target triple = "x86_64-pc-linux-gnu"

%struct._CSzState = type { ptr, i64 }

; Function Attrs: nounwind uwtable
define internal i32 @SzReadByte(ptr noundef %0, ptr noundef %1) #0 {
  %3 = alloca i32, align 4
  %4 = alloca ptr, align 8
  %5 = alloca ptr, align 8
  store ptr %0, ptr %4, align 8
  store ptr %1, ptr %5, align 8
  %6 = load ptr, ptr %4, align 8
  %7 = getelementptr inbounds %struct._CSzState, ptr %6, i32 0, i32 1
  %8 = load i64, ptr %7, align 8
  %9 = icmp eq i64 %8, 0
  br i1 %9, label %10, label %11

10:                                               ; preds = %2
  store i32 16, ptr %3, align 4
  br label %22

11:                                               ; preds = %2
  %12 = load ptr, ptr %4, align 8
  %13 = getelementptr inbounds %struct._CSzState, ptr %12, i32 0, i32 1
  %14 = load i64, ptr %13, align 8
  %15 = add i64 %14, -1
  store i64 %15, ptr %13, align 8
  %16 = load ptr, ptr %4, align 8
  %17 = getelementptr inbounds %struct._CSzState, ptr %16, i32 0, i32 0
  %18 = load ptr, ptr %17, align 8
  %19 = getelementptr inbounds i8, ptr %18, i32 1
  store ptr %19, ptr %17, align 8
  %20 = load i8, ptr %18, align 1
  %21 = load ptr, ptr %5, align 8
  store i8 %20, ptr %21, align 1
  store i32 0, ptr %3, align 4
  br label %22

22:                                               ; preds = %11, %10
  %23 = load i32, ptr %3, align 4
  ret i32 %23
}

; Function Attrs: nounwind uwtable
define internal i32 @SzReadNumber(ptr noundef %0, ptr noundef %1) #0 {
  %3 = alloca i32, align 4
  %4 = alloca ptr, align 8
  %5 = alloca ptr, align 8
  %6 = alloca i8, align 1
  %7 = alloca i8, align 1
  %8 = alloca i32, align 4
  %9 = alloca i32, align 4
  %10 = alloca i8, align 1
  %11 = alloca i64, align 8
  %12 = alloca i32, align 4
  store ptr %0, ptr %4, align 8
  store ptr %1, ptr %5, align 8
  store i8 -128, ptr %7, align 1
  %13 = load ptr, ptr %4, align 8
  %14 = call i32 @SzReadByte(ptr noundef %13, ptr noundef %6)
  store i32 %14, ptr %9, align 4
  %15 = load i32, ptr %9, align 4
  %16 = icmp ne i32 %15, 0
  br i1 %16, label %17, label %19

17:                                               ; preds = %2
  %18 = load i32, ptr %9, align 4
  store i32 %18, ptr %3, align 4
  br label %72

19:                                               ; preds = %2
  %20 = load ptr, ptr %5, align 8
  store i64 0, ptr %20, align 8
  store i32 0, ptr %8, align 4
  br label %21

21:                                               ; preds = %68, %19
  %22 = load i32, ptr %8, align 4
  %23 = icmp slt i32 %22, 8
  br i1 %23, label %24, label %71

24:                                               ; preds = %21
  %25 = load i8, ptr %6, align 1
  %26 = zext i8 %25 to i32
  %27 = load i8, ptr %7, align 1
  %28 = zext i8 %27 to i32
  %29 = and i32 %26, %28
  %30 = icmp eq i32 %29, 0
  br i1 %30, label %31, label %47

31:                                               ; preds = %24
  %32 = load i8, ptr %6, align 1
  %33 = zext i8 %32 to i32
  %34 = load i8, ptr %7, align 1
  %35 = zext i8 %34 to i32
  %36 = sub nsw i32 %35, 1
  %37 = and i32 %33, %36
  %38 = sext i32 %37 to i64
  store i64 %38, ptr %11, align 8
  %39 = load i64, ptr %11, align 8
  %40 = load i32, ptr %8, align 4
  %41 = mul nsw i32 8, %40
  %42 = zext i32 %41 to i64
  %43 = shl i64 %39, %42
  %44 = load ptr, ptr %5, align 8
  %45 = load i64, ptr %44, align 8
  %46 = add i64 %45, %43
  store i64 %46, ptr %44, align 8
  store i32 0, ptr %3, align 4
  br label %72

47:                                               ; preds = %24
  %48 = load ptr, ptr %4, align 8
  %49 = call i32 @SzReadByte(ptr noundef %48, ptr noundef %10)
  store i32 %49, ptr %12, align 4
  %50 = load i32, ptr %12, align 4
  %51 = icmp ne i32 %50, 0
  br i1 %51, label %52, label %54

52:                                               ; preds = %47
  %53 = load i32, ptr %12, align 4
  store i32 %53, ptr %3, align 4
  br label %72

54:                                               ; preds = %47
  %55 = load i8, ptr %10, align 1
  %56 = zext i8 %55 to i64
  %57 = load i32, ptr %8, align 4
  %58 = mul nsw i32 8, %57
  %59 = zext i32 %58 to i64
  %60 = shl i64 %56, %59
  %61 = load ptr, ptr %5, align 8
  %62 = load i64, ptr %61, align 8
  %63 = or i64 %62, %60
  store i64 %63, ptr %61, align 8
  %64 = load i8, ptr %7, align 1
  %65 = zext i8 %64 to i32
  %66 = ashr i32 %65, 1
  %67 = trunc i32 %66 to i8
  store i8 %67, ptr %7, align 1
  br label %68

68:                                               ; preds = %54
  %69 = load i32, ptr %8, align 4
  %70 = add nsw i32 %69, 1
  store i32 %70, ptr %8, align 4
  br label %21

71:                                               ; preds = %21
  store i32 0, ptr %3, align 4
  br label %72

72:                                               ; preds = %71, %52, %31, %17
  %73 = load i32, ptr %3, align 4
  ret i32 %73
}

; Function Attrs: nounwind uwtable
define internal i32 @SzReadID(ptr noundef %0, ptr noundef %1) #0 {
  %3 = alloca ptr, align 8
  %4 = alloca ptr, align 8
  store ptr %0, ptr %3, align 8
  store ptr %1, ptr %4, align 8
  %5 = load ptr, ptr %3, align 8
  %6 = load ptr, ptr %4, align 8
  %7 = call i32 @SzReadNumber(ptr noundef %5, ptr noundef %6)
  ret i32 %7
}