; Function Attrs: nofree norecurse nosync nounwind memory(read, argmem: readwrite, inaccessiblemem: none) uwtable
define internal fastcc range(i32 0, 17) i32 @SzReadID(ptr noundef nonnull captures(none) %0, ptr noundef nonnull captures(none) %1) unnamed_addr #5 {
  %3 = getelementptr inbounds nuw i8, ptr %0, i64 8
  %4 = load i64, ptr %3, align 8
  %5 = icmp eq i64 %4, 0
  br i1 %5, label %SzReadNumber.exit, label %6

6:                                                ; preds = %2
  %7 = add i64 %4, -1
  store i64 %7, ptr %3, align 8
  %8 = load ptr, ptr %0, align 8
  %9 = getelementptr inbounds nuw i8, ptr %8, i64 1
  store ptr %9, ptr %0, align 8
  %10 = load i8, ptr %8, align 1
  store i64 0, ptr %1, align 8
  %11 = zext i8 %10 to i32
  %12 = icmp sgt i8 %10, -1
  br i1 %12, label %._crit_edge, label %.lr.ph

13:                                               ; preds = %26
  %14 = lshr i32 %.01738.i6, 1
  %15 = and i32 %14, %11
  %16 = icmp eq i32 %15, 0
  br i1 %16, label %._crit_edge.loopexit, label %.lr.ph

._crit_edge.loopexit:                             ; preds = %13
  %17 = add nuw nsw i32 %14, 255
  %18 = shl i64 %indvars.iv.next.i, 3
  %19 = and i64 %18, 4294967288
  br label %._crit_edge

._crit_edge:                                      ; preds = %._crit_edge.loopexit, %6
  %.lcssa = phi i64 [ 0, %6 ], [ %35, %._crit_edge.loopexit ]
  %indvars.iv.i.lcssa = phi i64 [ 0, %6 ], [ %19, %._crit_edge.loopexit ]
  %.01738.i.lcssa = phi i32 [ 383, %6 ], [ %17, %._crit_edge.loopexit ]
  %20 = and i32 %.01738.i.lcssa, %11
  %21 = zext nneg i32 %20 to i64
  %22 = shl nuw i64 %21, %indvars.iv.i.lcssa
  %23 = add i64 %22, %.lcssa
  store i64 %23, ptr %1, align 8
  br label %SzReadNumber.exit

.lr.ph:                                           ; preds = %6, %13
  %.01738.i6 = phi i32 [ %14, %13 ], [ 128, %6 ]
  %indvars.iv.i5 = phi i64 [ %indvars.iv.next.i, %13 ], [ 0, %6 ]
  %24 = load i64, ptr %3, align 8
  %25 = icmp eq i64 %24, 0
  br i1 %25, label %SzReadNumber.exit, label %26

26:                                               ; preds = %.lr.ph
  %27 = add i64 %24, -1
  store i64 %27, ptr %3, align 8
  %28 = load ptr, ptr %0, align 8
  %29 = getelementptr inbounds nuw i8, ptr %28, i64 1
  store ptr %29, ptr %0, align 8
  %30 = load i8, ptr %28, align 1
  %31 = zext i8 %30 to i64
  %32 = shl nuw nsw i64 %indvars.iv.i5, 3
  %33 = shl nuw i64 %31, %32
  %34 = load i64, ptr %1, align 8
  %35 = or i64 %33, %34
  store i64 %35, ptr %1, align 8
  %indvars.iv.next.i = add nuw nsw i64 %indvars.iv.i5, 1
  %exitcond.not.i = icmp eq i64 %indvars.iv.next.i, 8
  br i1 %exitcond.not.i, label %SzReadNumber.exit, label %13

SzReadNumber.exit:                                ; preds = %.lr.ph, %26, %2, %._crit_edge
  %.0.i = phi i32 [ 0, %._crit_edge ], [ 16, %2 ], [ 0, %26 ], [ 16, %.lr.ph ]
  ret i32 %.0.i
}